target datalayout = "e-m:e-p270:32:32-p271:32:32-p272:64:64-i64:64-i128:128-f80:128-n8:16:32:64-S128"
target triple = "x86_64-pc-linux-gnu"

%"class.std::__shared_count" = type { ptr }
%"struct.cv::Ptr.0" = type { %"class.std::shared_ptr.1" }
%"class.std::shared_ptr.1" = type { %"class.std::__shared_ptr.2" }
%"class.std::__shared_ptr.2" = type { ptr, %"class.std::__shared_count" }

; Function Attrs: mustprogress nounwind uwtable
define linkonce_odr hidden noundef ptr @_ZNKSt12__shared_ptrIN2cv8ximgproc11DTFilterCPUELN9__gnu_cxx12_Lock_policyE2EE3getEv(ptr noundef nonnull align 8 dereferenceable(16) %0) #7 comdat align 2 {
  %2 = alloca ptr, align 8
  store ptr %0, ptr %2, align 8, !tbaa !16
  %3 = load ptr, ptr %2, align 8
  %4 = getelementptr inbounds nuw %"class.std::__shared_ptr.2", ptr %3, i32 0, i32 0
  %5 = load ptr, ptr %4, align 8, !tbaa !46
  ret ptr %5
}

; Function Attrs: mustprogress nounwind uwtable
define linkonce_odr hidden noundef ptr @_ZNK2cv3PtrINS_8ximgproc11DTFilterCPUEEptEv(ptr noundef nonnull align 8 dereferenceable(16) %0) #7 comdat align 2 {
  %2 = alloca ptr, align 8
  store ptr %0, ptr %2, align 8, !tbaa !14
  %3 = load ptr, ptr %2, align 8
  %4 = call noundef ptr @_ZNKSt12__shared_ptrIN2cv8ximgproc11DTFilterCPUELN9__gnu_cxx12_Lock_policyE2EE3getEv(ptr noundef nonnull align 8 dereferenceable(16) %3) #3
  ret ptr %4
}

; Function Attrs: mustprogress uwtable
define void @_ZN2cv8ximgproc8dtFilterERKNS_11_InputArrayES3_RKNS_12_OutputArrayEddii(ptr noundef nonnull align 8 dereferenceable(24) %0, ptr noundef nonnull align 8 dereferenceable(24) %1, ptr noundef nonnull align 8 dereferenceable(24) %2, double noundef %3, double noundef %4, i32 noundef %5, i32 noundef %6) #4 personality ptr @__gxx_personality_v0 {
  %8 = alloca ptr, align 8
  %9 = alloca ptr, align 8
  %10 = alloca ptr, align 8
  %11 = alloca double, align 8
  %12 = alloca double, align 8
  %13 = alloca i32, align 4
  %14 = alloca i32, align 4
  %15 = alloca %"struct.cv::Ptr.0", align 8
  %16 = alloca ptr, align 8
  %17 = alloca i32, align 4
  store ptr %0, ptr %8, align 8, !tbaa !3
  store ptr %1, ptr %9, align 8, !tbaa !3
  store ptr %2, ptr %10, align 8, !tbaa !18
  store double %3, ptr %11, align 8, !tbaa !8
  store double %4, ptr %12, align 8, !tbaa !8
  store i32 %5, ptr %13, align 4, !tbaa !10
  store i32 %6, ptr %14, align 4, !tbaa !10
  call void @llvm.lifetime.start.p0(i64 16, ptr %15) #3
  %18 = load ptr, ptr %8, align 8, !tbaa !3
  %19 = load double, ptr %11, align 8, !tbaa !8
  %20 = load double, ptr %12, align 8, !tbaa !8
  %21 = load i32, ptr %13, align 4, !tbaa !10
  %22 = load i32, ptr %14, align 4, !tbaa !10
  call void @_ZN2cv8ximgproc11DTFilterCPU6createERKNS_11_InputArrayEddii(ptr dead_on_unwind writable sret(%"struct.cv::Ptr.0") align 8 %15, ptr noundef nonnull align 8 dereferenceable(24) %18, double noundef %19, double noundef %20, i32 noundef %21, i32 noundef %22)
  %23 = call noundef ptr @_ZNK2cv3PtrINS_8ximgproc11DTFilterCPUEEptEv(ptr noundef nonnull align 8 dereferenceable(16) %15) #3
  invoke void @_ZN2cv8ximgproc11DTFilterCPU19setSingleFilterCallEb(ptr noundef nonnull align 8 dereferenceable(812) %23, i1 noundef zeroext true)
          to label %24 unwind label %32

24:                                               ; preds = %7
  %25 = call noundef ptr @_ZNK2cv3PtrINS_8ximgproc11DTFilterCPUEEptEv(ptr noundef nonnull align 8 dereferenceable(16) %15) #3
  %26 = load ptr, ptr %9, align 8, !tbaa !3
  %27 = load ptr, ptr %10, align 8, !tbaa !18
  %28 = load ptr, ptr %25, align 8, !tbaa !20
  %29 = getelementptr inbounds ptr, ptr %28, i64 8
  %30 = load ptr, ptr %29, align 8
  invoke void %30(ptr noundef nonnull align 8 dereferenceable(812) %25, ptr noundef nonnull align 8 dereferenceable(24) %26, ptr noundef nonnull align 8 dereferenceable(24) %27, i32 noundef -1)
          to label %31 unwind label %32

31:                                               ; preds = %24
  call void @_ZNSt12__shared_ptrIN2cv8ximgproc11DTFilterCPUELN9__gnu_cxx12_Lock_policyE2EED2Ev(ptr noundef nonnull align 8 dereferenceable(16) %15) #3
  call void @llvm.lifetime.end.p0(i64 16, ptr %15) #3
  ret void

32:                                               ; preds = %24, %7
  %33 = landingpad { ptr, i32 }
          cleanup
  %34 = extractvalue { ptr, i32 } %33, 0
  store ptr %34, ptr %16, align 8
  %35 = extractvalue { ptr, i32 } %33, 1
  store i32 %35, ptr %17, align 4
  call void @_ZNSt12__shared_ptrIN2cv8ximgproc11DTFilterCPUELN9__gnu_cxx12_Lock_policyE2EED2Ev(ptr noundef nonnull align 8 dereferenceable(16) %15) #3
  call void @llvm.lifetime.end.p0(i64 16, ptr %15) #3
  br label %36

36:                                               ; preds = %32
  %37 = load ptr, ptr %16, align 8
  %38 = load i32, ptr %17, align 4
  %39 = insertvalue { ptr, i32 } poison, ptr %37, 0
  %40 = insertvalue { ptr, i32 } %39, i32 %38, 1
  resume { ptr, i32 } %40
}