; Function Attrs: mustprogress uwtable
define void @_ZN2cv8ximgproc8dtFilterERKNS_11_InputArrayES3_RKNS_12_OutputArrayEddii(ptr noundef nonnull align 8 dereferenceable(24) %0, ptr noundef nonnull align 8 dereferenceable(24) %1, ptr noundef nonnull align 8 dereferenceable(24) %2, double noundef %3, double noundef %4, i32 noundef %5, i32 noundef %6) local_unnamed_addr #3 personality ptr @__gxx_personality_v0 {
  %8 = alloca %"struct.cv::Ptr.0", align 8
  call void @llvm.lifetime.start.p0(i64 16, ptr nonnull %8) #8
  call void @_ZN2cv8ximgproc11DTFilterCPU6createERKNS_11_InputArrayEddii(ptr dead_on_unwind nonnull writable sret(%"struct.cv::Ptr.0") align 8 %8, ptr noundef nonnull align 8 dereferenceable(24) %0, double noundef %3, double noundef %4, i32 noundef %5, i32 noundef %6)
  %9 = load ptr, ptr %8, align 8, !tbaa !3
  invoke void @_ZN2cv8ximgproc11DTFilterCPU19setSingleFilterCallEb(ptr noundef nonnull align 8 dereferenceable(812) %9, i1 noundef zeroext true)
          to label %10 unwind label %39

10:                                               ; preds = %7
  %11 = load ptr, ptr %8, align 8, !tbaa !3
  %12 = load ptr, ptr %11, align 8, !tbaa !19
  %13 = getelementptr inbounds nuw i8, ptr %12, i64 64
  %14 = load ptr, ptr %13, align 8
  invoke void %14(ptr noundef nonnull align 8 dereferenceable(812) %11, ptr noundef nonnull align 8 dereferenceable(24) %1, ptr noundef nonnull align 8 dereferenceable(24) %2, i32 noundef -1)
          to label %15 unwind label %39

15:                                               ; preds = %10
  %16 = getelementptr inbounds nuw i8, ptr %8, i64 8
  %17 = load ptr, ptr %16, align 8, !tbaa !14
  %.not.i.i = icmp eq ptr %17, null
  br i1 %.not.i.i, label %_ZNSt12__shared_ptrIN2cv8ximgproc11DTFilterCPUELN9__gnu_cxx12_Lock_policyE2EED2Ev.exit, label %18

18:                                               ; preds = %15
  %19 = getelementptr inbounds nuw i8, ptr %17, i64 8
  %20 = load atomic i64, ptr %19 acquire, align 8
  %21 = icmp eq i64 %20, 4294967297
  %22 = trunc i64 %20 to i32
  br i1 %21, label %23, label %31

23:                                               ; preds = %18
  store i32 0, ptr %19, align 8, !tbaa !15
  %24 = getelementptr inbounds nuw i8, ptr %17, i64 12
  store i32 0, ptr %24, align 4, !tbaa !18
  %25 = load ptr, ptr %17, align 8, !tbaa !19
  %26 = getelementptr inbounds nuw i8, ptr %25, i64 16
  %27 = load ptr, ptr %26, align 8
  call void %27(ptr noundef nonnull align 8 dereferenceable(16) %17) #8
  %28 = load ptr, ptr %17, align 8, !tbaa !19
  %29 = getelementptr inbounds nuw i8, ptr %28, i64 24
  %30 = load ptr, ptr %29, align 8
  call void %30(ptr noundef nonnull align 8 dereferenceable(16) %17) #8
  br label %_ZNSt12__shared_ptrIN2cv8ximgproc11DTFilterCPUELN9__gnu_cxx12_Lock_policyE2EED2Ev.exit

31:                                               ; preds = %18
  %32 = load i8, ptr @__libc_single_threaded, align 1, !tbaa !21
  %.not.i.i.i = icmp eq i8 %32, 0
  br i1 %.not.i.i.i, label %35, label %33

33:                                               ; preds = %31
  %34 = add nsw i32 %22, -1
  store i32 %34, ptr %19, align 4, !tbaa !22
  br label %_ZN9__gnu_cxx27__exchange_and_add_dispatchEPii.exit.i.i.i

35:                                               ; preds = %31
  %36 = atomicrmw volatile add ptr %19, i32 -1 acq_rel, align 4
  br label %_ZN9__gnu_cxx27__exchange_and_add_dispatchEPii.exit.i.i.i

_ZN9__gnu_cxx27__exchange_and_add_dispatchEPii.exit.i.i.i: ; preds = %35, %33
  %.0.i.i.i.i = phi i32 [ %22, %33 ], [ %36, %35 ]
  %37 = icmp eq i32 %.0.i.i.i.i, 1
  br i1 %37, label %38, label %_ZNSt12__shared_ptrIN2cv8ximgproc11DTFilterCPUELN9__gnu_cxx12_Lock_policyE2EED2Ev.exit, !prof !23

38:                                               ; preds = %_ZN9__gnu_cxx27__exchange_and_add_dispatchEPii.exit.i.i.i
  call void @_ZNSt16_Sp_counted_baseILN9__gnu_cxx12_Lock_policyE2EE24_M_release_last_use_coldEv(ptr noundef nonnull align 8 dereferenceable(16) %17) #8
  br label %_ZNSt12__shared_ptrIN2cv8ximgproc11DTFilterCPUELN9__gnu_cxx12_Lock_policyE2EED2Ev.exit

_ZNSt12__shared_ptrIN2cv8ximgproc11DTFilterCPUELN9__gnu_cxx12_Lock_policyE2EED2Ev.exit: ; preds = %15, %23, %_ZN9__gnu_cxx27__exchange_and_add_dispatchEPii.exit.i.i.i, %38
  call void @llvm.lifetime.end.p0(i64 16, ptr nonnull %8) #8
  ret void

39:                                               ; preds = %10, %7
  %40 = landingpad { ptr, i32 }
          cleanup
  call void @_ZNSt12__shared_ptrIN2cv8ximgproc11DTFilterCPUELN9__gnu_cxx12_Lock_policyE2EED2Ev(ptr noundef nonnull align 8 dereferenceable(16) %8) #8
  call void @llvm.lifetime.end.p0(i64 16, ptr nonnull %8) #8
  resume { ptr, i32 } %40
}